target datalayout = "e-m:e-p270:32:32-p271:32:32-p272:64:64-i64:64-i128:128-f80:128-n8:16:32:64-S128"
target triple = "x86_64-pc-linux-gnu"

%struct.AVIOContext = type { ptr, ptr, i32, ptr, ptr, ptr, ptr, ptr, ptr, i64, i32, i32, i32, i32, i32, i64, ptr, ptr, ptr, ptr, i32, i32, ptr, ptr, ptr, i32, ptr, i64, i64 }
%struct.WtvFile = type { ptr, i32, ptr, i32, i32, i64, i64 }

; Function Attrs: nounwind uwtable
define internal i64 @seek_by_sector(ptr noundef %0, i64 noundef %1, i64 noundef %2) #0 {
  %4 = alloca ptr, align 8
  %5 = alloca i64, align 8
  %6 = alloca i64, align 8
  store ptr %0, ptr %4, align 8, !tbaa !41
  store i64 %1, ptr %5, align 8, !tbaa !39
  store i64 %2, ptr %6, align 8, !tbaa !39
  %7 = load ptr, ptr %4, align 8, !tbaa !41
  %8 = load i64, ptr %5, align 8, !tbaa !39
  %9 = shl i64 %8, 12
  %10 = load i64, ptr %6, align 8, !tbaa !39
  %11 = add nsw i64 %9, %10
  %12 = call i64 @avio_seek(ptr noundef %7, i64 noundef %11, i32 noundef 0)
  ret i64 %12
}

; Function Attrs: nounwind uwtable
define internal i32 @wtvfile_read_packet(ptr noundef %0, ptr noundef %1, i32 noundef %2) #0 {
  %4 = alloca i32, align 4
  %5 = alloca ptr, align 8
  %6 = alloca ptr, align 8
  %7 = alloca i32, align 4
  %8 = alloca ptr, align 8
  %9 = alloca ptr, align 8
  %10 = alloca i32, align 4
  %11 = alloca i32, align 4
  %12 = alloca i32, align 4
  %13 = alloca i32, align 4
  %14 = alloca i32, align 4
  %15 = alloca i32, align 4
  store ptr %0, ptr %5, align 8, !tbaa !66
  store ptr %1, ptr %6, align 8, !tbaa !67
  store i32 %2, ptr %7, align 4, !tbaa !38
  call void @llvm.lifetime.start.p0(i64 8, ptr %8) #8
  %16 = load ptr, ptr %5, align 8, !tbaa !66
  store ptr %16, ptr %8, align 8, !tbaa !81
  call void @llvm.lifetime.start.p0(i64 8, ptr %9) #8
  %17 = load ptr, ptr %8, align 8, !tbaa !81
  %18 = getelementptr inbounds nuw %struct.WtvFile, ptr %17, i32 0, i32 0
  %19 = load ptr, ptr %18, align 8, !tbaa !91
  store ptr %19, ptr %9, align 8, !tbaa !41
  call void @llvm.lifetime.start.p0(i64 4, ptr %10) #8
  store i32 0, ptr %10, align 4, !tbaa !38
  call void @llvm.lifetime.start.p0(i64 4, ptr %11) #8
  store i32 0, ptr %11, align 4, !tbaa !38
  %20 = load ptr, ptr %8, align 8, !tbaa !81
  %21 = getelementptr inbounds nuw %struct.WtvFile, ptr %20, i32 0, i32 4
  %22 = load i32, ptr %21, align 4, !tbaa !93
  %23 = icmp ne i32 %22, 0
  br i1 %23, label %29, label %24

24:                                               ; preds = %3
  %25 = load ptr, ptr %9, align 8, !tbaa !41
  %26 = getelementptr inbounds nuw %struct.AVIOContext, ptr %25, i32 0, i32 11
  %27 = load i32, ptr %26, align 4, !tbaa !94
  %28 = icmp ne i32 %27, 0
  br i1 %28, label %29, label %30

29:                                               ; preds = %24, %3
  store i32 -1, ptr %4, align 4
  store i32 1, ptr %12, align 4
  br label %197

30:                                               ; preds = %24
  %31 = load ptr, ptr %8, align 8, !tbaa !81
  %32 = getelementptr inbounds nuw %struct.WtvFile, ptr %31, i32 0, i32 5
  %33 = load i64, ptr %32, align 8, !tbaa !90
  %34 = load ptr, ptr %8, align 8, !tbaa !81
  %35 = getelementptr inbounds nuw %struct.WtvFile, ptr %34, i32 0, i32 6
  %36 = load i64, ptr %35, align 8, !tbaa !89
  %37 = icmp sge i64 %33, %36
  br i1 %37, label %42, label %38

38:                                               ; preds = %30
  %39 = load ptr, ptr %9, align 8, !tbaa !41
  %40 = call i32 @avio_feof(ptr noundef %39)
  %41 = icmp ne i32 %40, 0
  br i1 %41, label %42, label %43

42:                                               ; preds = %38, %30
  store i32 -541478725, ptr %4, align 4
  store i32 1, ptr %12, align 4
  br label %197

43:                                               ; preds = %38
  %44 = load i32, ptr %7, align 4, !tbaa !38
  %45 = sext i32 %44 to i64
  %46 = load ptr, ptr %8, align 8, !tbaa !81
  %47 = getelementptr inbounds nuw %struct.WtvFile, ptr %46, i32 0, i32 6
  %48 = load i64, ptr %47, align 8, !tbaa !89
  %49 = load ptr, ptr %8, align 8, !tbaa !81
  %50 = getelementptr inbounds nuw %struct.WtvFile, ptr %49, i32 0, i32 5
  %51 = load i64, ptr %50, align 8, !tbaa !90
  %52 = sub nsw i64 %48, %51
  %53 = icmp sgt i64 %45, %52
  br i1 %53, label %54, label %62

54:                                               ; preds = %43
  %55 = load ptr, ptr %8, align 8, !tbaa !81
  %56 = getelementptr inbounds nuw %struct.WtvFile, ptr %55, i32 0, i32 6
  %57 = load i64, ptr %56, align 8, !tbaa !89
  %58 = load ptr, ptr %8, align 8, !tbaa !81
  %59 = getelementptr inbounds nuw %struct.WtvFile, ptr %58, i32 0, i32 5
  %60 = load i64, ptr %59, align 8, !tbaa !90
  %61 = sub nsw i64 %57, %60
  br label %65

62:                                               ; preds = %43
  %63 = load i32, ptr %7, align 4, !tbaa !38
  %64 = sext i32 %63 to i64
  br label %65

65:                                               ; preds = %62, %54
  %66 = phi i64 [ %61, %54 ], [ %64, %62 ]
  %67 = trunc i64 %66 to i32
  store i32 %67, ptr %7, align 4, !tbaa !38
  br label %68

68:                                               ; preds = %187, %65
  %69 = load i32, ptr %10, align 4, !tbaa !38
  %70 = load i32, ptr %7, align 4, !tbaa !38
  %71 = icmp slt i32 %69, %70
  br i1 %71, label %72, label %188

72:                                               ; preds = %68
  call void @llvm.lifetime.start.p0(i64 4, ptr %13) #8
  %73 = load ptr, ptr %8, align 8, !tbaa !81
  %74 = getelementptr inbounds nuw %struct.WtvFile, ptr %73, i32 0, i32 1
  %75 = load i32, ptr %74, align 8, !tbaa !88
  %76 = shl i32 1, %75
  %77 = sext i32 %76 to i64
  %78 = load ptr, ptr %8, align 8, !tbaa !81
  %79 = getelementptr inbounds nuw %struct.WtvFile, ptr %78, i32 0, i32 5
  %80 = load i64, ptr %79, align 8, !tbaa !90
  %81 = load ptr, ptr %8, align 8, !tbaa !81
  %82 = getelementptr inbounds nuw %struct.WtvFile, ptr %81, i32 0, i32 1
  %83 = load i32, ptr %82, align 8, !tbaa !88
  %84 = shl i32 1, %83
  %85 = sub nsw i32 %84, 1
  %86 = sext i32 %85 to i64
  %87 = and i64 %80, %86
  %88 = sub nsw i64 %77, %87
  %89 = trunc i64 %88 to i32
  store i32 %89, ptr %13, align 4, !tbaa !38
  call void @llvm.lifetime.start.p0(i64 4, ptr %14) #8
  %90 = load i32, ptr %7, align 4, !tbaa !38
  %91 = load i32, ptr %10, align 4, !tbaa !38
  %92 = sub nsw i32 %90, %91
  %93 = load i32, ptr %13, align 4, !tbaa !38
  %94 = icmp sgt i32 %92, %93
  br i1 %94, label %95, label %97

95:                                               ; preds = %72
  %96 = load i32, ptr %13, align 4, !tbaa !38
  br label %101

97:                                               ; preds = %72
  %98 = load i32, ptr %7, align 4, !tbaa !38
  %99 = load i32, ptr %10, align 4, !tbaa !38
  %100 = sub nsw i32 %98, %99
  br label %101

101:                                              ; preds = %97, %95
  %102 = phi i32 [ %96, %95 ], [ %100, %97 ]
  store i32 %102, ptr %14, align 4, !tbaa !38
  %103 = load ptr, ptr %9, align 8, !tbaa !41
  %104 = load ptr, ptr %6, align 8, !tbaa !67
  %105 = load i32, ptr %14, align 4, !tbaa !38
  %106 = call i32 @avio_read(ptr noundef %103, ptr noundef %104, i32 noundef %105)
  store i32 %106, ptr %11, align 4, !tbaa !38
  %107 = load i32, ptr %11, align 4, !tbaa !38
  %108 = icmp sle i32 %107, 0
  br i1 %108, label %109, label %110

109:                                              ; preds = %101
  store i32 3, ptr %12, align 4
  br label %185

110:                                              ; preds = %101
  %111 = load i32, ptr %11, align 4, !tbaa !38
  %112 = load i32, ptr %10, align 4, !tbaa !38
  %113 = add nsw i32 %112, %111
  store i32 %113, ptr %10, align 4, !tbaa !38
  %114 = load i32, ptr %11, align 4, !tbaa !38
  %115 = load ptr, ptr %6, align 8, !tbaa !67
  %116 = sext i32 %114 to i64
  %117 = getelementptr inbounds i8, ptr %115, i64 %116
  store ptr %117, ptr %6, align 8, !tbaa !67
  %118 = load i32, ptr %11, align 4, !tbaa !38
  %119 = sext i32 %118 to i64
  %120 = load ptr, ptr %8, align 8, !tbaa !81
  %121 = getelementptr inbounds nuw %struct.WtvFile, ptr %120, i32 0, i32 5
  %122 = load i64, ptr %121, align 8, !tbaa !90
  %123 = add nsw i64 %122, %119
  store i64 %123, ptr %121, align 8, !tbaa !90
  %124 = load i32, ptr %11, align 4, !tbaa !38
  %125 = load i32, ptr %13, align 4, !tbaa !38
  %126 = icmp eq i32 %124, %125
  br i1 %126, label %127, label %184

127:                                              ; preds = %110
  call void @llvm.lifetime.start.p0(i64 4, ptr %15) #8
  %128 = load ptr, ptr %8, align 8, !tbaa !81
  %129 = getelementptr inbounds nuw %struct.WtvFile, ptr %128, i32 0, i32 5
  %130 = load i64, ptr %129, align 8, !tbaa !90
  %131 = load ptr, ptr %8, align 8, !tbaa !81
  %132 = getelementptr inbounds nuw %struct.WtvFile, ptr %131, i32 0, i32 1
  %133 = load i32, ptr %132, align 8, !tbaa !88
  %134 = zext i32 %133 to i64
  %135 = ashr i64 %130, %134
  %136 = trunc i64 %135 to i32
  store i32 %136, ptr %15, align 4, !tbaa !38
  %137 = load i32, ptr %15, align 4, !tbaa !38
  %138 = load ptr, ptr %8, align 8, !tbaa !81
  %139 = getelementptr inbounds nuw %struct.WtvFile, ptr %138, i32 0, i32 3
  %140 = load i32, ptr %139, align 8, !tbaa !86
  %141 = icmp sge i32 %137, %140
  br i1 %141, label %177, label %142

142:                                              ; preds = %127
  %143 = load ptr, ptr %8, align 8, !tbaa !81
  %144 = getelementptr inbounds nuw %struct.WtvFile, ptr %143, i32 0, i32 2
  %145 = load ptr, ptr %144, align 8, !tbaa !84
  %146 = load i32, ptr %15, align 4, !tbaa !38
  %147 = sext i32 %146 to i64
  %148 = getelementptr inbounds i32, ptr %145, i64 %147
  %149 = load i32, ptr %148, align 4, !tbaa !38
  %150 = load ptr, ptr %8, align 8, !tbaa !81
  %151 = getelementptr inbounds nuw %struct.WtvFile, ptr %150, i32 0, i32 2
  %152 = load ptr, ptr %151, align 8, !tbaa !84
  %153 = load i32, ptr %15, align 4, !tbaa !38
  %154 = sub nsw i32 %153, 1
  %155 = sext i32 %154 to i64
  %156 = getelementptr inbounds i32, ptr %152, i64 %155
  %157 = load i32, ptr %156, align 4, !tbaa !38
  %158 = load ptr, ptr %8, align 8, !tbaa !81
  %159 = getelementptr inbounds nuw %struct.WtvFile, ptr %158, i32 0, i32 1
  %160 = load i32, ptr %159, align 8, !tbaa !88
  %161 = sub nsw i32 %160, 12
  %162 = shl i32 1, %161
  %163 = add i32 %157, %162
  %164 = icmp ne i32 %149, %163
  br i1 %164, label %165, label %180

165:                                              ; preds = %142
  %166 = load ptr, ptr %9, align 8, !tbaa !41
  %167 = load ptr, ptr %8, align 8, !tbaa !81
  %168 = getelementptr inbounds nuw %struct.WtvFile, ptr %167, i32 0, i32 2
  %169 = load ptr, ptr %168, align 8, !tbaa !84
  %170 = load i32, ptr %15, align 4, !tbaa !38
  %171 = sext i32 %170 to i64
  %172 = getelementptr inbounds i32, ptr %169, i64 %171
  %173 = load i32, ptr %172, align 4, !tbaa !38
  %174 = zext i32 %173 to i64
  %175 = call i64 @seek_by_sector(ptr noundef %166, i64 noundef %174, i64 noundef 0)
  %176 = icmp slt i64 %175, 0
  br i1 %176, label %177, label %180

177:                                              ; preds = %165, %127
  %178 = load ptr, ptr %8, align 8, !tbaa !81
  %179 = getelementptr inbounds nuw %struct.WtvFile, ptr %178, i32 0, i32 4
  store i32 1, ptr %179, align 4, !tbaa !93
  store i32 3, ptr %12, align 4
  br label %181

180:                                              ; preds = %165, %142
  store i32 0, ptr %12, align 4
  br label %181

181:                                              ; preds = %180, %177
  call void @llvm.lifetime.end.p0(i64 4, ptr %15) #8
  %182 = load i32, ptr %12, align 4
  switch i32 %182, label %185 [
    i32 0, label %183
  ]

183:                                              ; preds = %181
  br label %184

184:                                              ; preds = %183, %110
  store i32 0, ptr %12, align 4
  br label %185

185:                                              ; preds = %184, %181, %109
  call void @llvm.lifetime.end.p0(i64 4, ptr %14) #8
  call void @llvm.lifetime.end.p0(i64 4, ptr %13) #8
  %186 = load i32, ptr %12, align 4
  switch i32 %186, label %199 [
    i32 0, label %187
    i32 3, label %188
  ]

187:                                              ; preds = %185
  br label %68, !llvm.loop !95

188:                                              ; preds = %185, %68
  %189 = load i32, ptr %10, align 4, !tbaa !38
  %190 = icmp ne i32 %189, 0
  br i1 %190, label %191, label %193

191:                                              ; preds = %188
  %192 = load i32, ptr %10, align 4, !tbaa !38
  br label %195

193:                                              ; preds = %188
  %194 = load i32, ptr %11, align 4, !tbaa !38
  br label %195

195:                                              ; preds = %193, %191
  %196 = phi i32 [ %192, %191 ], [ %194, %193 ]
  store i32 %196, ptr %4, align 4
  store i32 1, ptr %12, align 4
  br label %197

197:                                              ; preds = %195, %42, %29
  call void @llvm.lifetime.end.p0(i64 4, ptr %11) #8
  call void @llvm.lifetime.end.p0(i64 4, ptr %10) #8
  call void @llvm.lifetime.end.p0(i64 8, ptr %9) #8
  call void @llvm.lifetime.end.p0(i64 8, ptr %8) #8
  %198 = load i32, ptr %4, align 4
  ret i32 %198

199:                                              ; preds = %185
  unreachable
}