; Function Attrs: nounwind uwtable
define internal i32 @wtvfile_read_packet(ptr noundef captures(none) %0, ptr noundef %1, i32 noundef %2) #1 {
  %4 = load ptr, ptr %0, align 8, !tbaa !71
  %5 = getelementptr inbounds nuw i8, ptr %0, i64 28
  %6 = load i32, ptr %5, align 4, !tbaa !78
  %.not = icmp eq i32 %6, 0
  br i1 %.not, label %7, label %.thread77.thread

7:                                                ; preds = %3
  %8 = getelementptr inbounds nuw i8, ptr %4, i64 84
  %9 = load i32, ptr %8, align 4, !tbaa !79
  %.not67 = icmp eq i32 %9, 0
  br i1 %.not67, label %10, label %.thread77.thread

10:                                               ; preds = %7
  %11 = getelementptr inbounds nuw i8, ptr %0, i64 32
  %12 = load i64, ptr %11, align 8, !tbaa !70
  %13 = getelementptr inbounds nuw i8, ptr %0, i64 40
  %14 = load i64, ptr %13, align 8, !tbaa !69
  %.not68 = icmp slt i64 %12, %14
  br i1 %.not68, label %15, label %.thread77.thread

15:                                               ; preds = %10
  %16 = tail call i32 @avio_feof(ptr noundef nonnull %4) #11
  %.not69 = icmp eq i32 %16, 0
  br i1 %.not69, label %17, label %.thread77.thread

17:                                               ; preds = %15
  %18 = sext i32 %2 to i64
  %19 = load i64, ptr %13, align 8, !tbaa !69
  %20 = load i64, ptr %11, align 8, !tbaa !70
  %21 = sub nsw i64 %19, %20
  %22 = tail call i64 @llvm.smin.i64(i64 %21, i64 %18)
  %23 = trunc i64 %22 to i32
  %24 = icmp sgt i32 %23, 0
  br i1 %24, label %.lr.ph, label %.thread77.thread

.lr.ph:                                           ; preds = %17
  %25 = getelementptr inbounds nuw i8, ptr %0, i64 8
  %26 = getelementptr inbounds nuw i8, ptr %0, i64 24
  %27 = getelementptr inbounds nuw i8, ptr %0, i64 16
  br label %28

28:                                               ; preds = %.lr.ph, %.thread
  %.05485 = phi ptr [ %1, %.lr.ph ], [ %43, %.thread ]
  %.05984 = phi i32 [ 0, %.lr.ph ], [ %41, %.thread ]
  %29 = load i32, ptr %25, align 8, !tbaa !66
  %30 = shl nuw i32 1, %29
  %31 = load i64, ptr %11, align 8, !tbaa !70
  %32 = add nsw i32 %30, -1
  %33 = trunc i64 %31 to i32
  %34 = and i32 %32, %33
  %35 = sub i32 %30, %34
  %36 = sub nsw i32 %23, %.05984
  %37 = tail call i32 @llvm.smin.i32(i32 %36, i32 %35)
  %38 = tail call i32 @avio_read(ptr noundef nonnull %4, ptr noundef %.05485, i32 noundef %37) #11
  %39 = icmp slt i32 %38, 1
  br i1 %39, label %.thread77, label %40

40:                                               ; preds = %28
  %41 = add nuw nsw i32 %38, %.05984
  %42 = zext nneg i32 %38 to i64
  %43 = getelementptr inbounds nuw i8, ptr %.05485, i64 %42
  %44 = load i64, ptr %11, align 8, !tbaa !70
  %45 = add nsw i64 %44, %42
  store i64 %45, ptr %11, align 8, !tbaa !70
  %46 = icmp eq i32 %38, %35
  br i1 %46, label %47, label %.thread

47:                                               ; preds = %40
  %48 = load i32, ptr %25, align 8, !tbaa !66
  %49 = zext nneg i32 %48 to i64
  %50 = ashr i64 %45, %49
  %51 = trunc i64 %50 to i32
  %52 = load i32, ptr %26, align 8, !tbaa !65
  %.not70 = icmp sgt i32 %52, %51
  br i1 %.not70, label %53, label %69

53:                                               ; preds = %47
  %54 = load ptr, ptr %27, align 8, !tbaa !62
  %sext = shl i64 %50, 32
  %55 = ashr exact i64 %sext, 30
  %56 = getelementptr inbounds i8, ptr %54, i64 %55
  %57 = load i32, ptr %56, align 4, !tbaa !57
  %sext71 = add i64 %sext, -4294967296
  %58 = ashr exact i64 %sext71, 30
  %59 = getelementptr inbounds i8, ptr %54, i64 %58
  %60 = load i32, ptr %59, align 4, !tbaa !57
  %61 = add nsw i32 %48, -12
  %62 = shl nuw i32 1, %61
  %63 = add i32 %60, %62
  %.not72 = icmp eq i32 %57, %63
  br i1 %.not72, label %.thread, label %64

64:                                               ; preds = %53
  %65 = zext i32 %57 to i64
  %66 = shl nuw nsw i64 %65, 12
  %67 = tail call i64 @avio_seek(ptr noundef nonnull %4, i64 noundef %66, i32 noundef 0) #11
  %68 = icmp slt i64 %67, 0
  br i1 %68, label %69, label %.thread

69:                                               ; preds = %47, %64
  store i32 1, ptr %5, align 4, !tbaa !78
  br label %.thread77

.thread:                                          ; preds = %53, %64, %40
  %70 = icmp slt i32 %41, %23
  br i1 %70, label %28, label %.thread77

.thread77:                                        ; preds = %.thread, %28, %69
  %.160 = phi i32 [ %41, %69 ], [ %41, %.thread ], [ %.05984, %28 ]
  %.158 = phi i32 [ %35, %69 ], [ %38, %28 ], [ %38, %.thread ]
  %.160.fr = freeze i32 %.160
  %.not73 = icmp eq i32 %.160.fr, 0
  %spec.select = select i1 %.not73, i32 %.158, i32 %.160.fr
  br label %.thread77.thread

.thread77.thread:                                 ; preds = %.thread77, %17, %10, %15, %3, %7
  %.0 = phi i32 [ -1, %7 ], [ -1, %3 ], [ -541478725, %15 ], [ -541478725, %10 ], [ 0, %17 ], [ %spec.select, %.thread77 ]
  ret i32 %.0
}